target datalayout = "e-m:e-p270:32:32-p271:32:32-p272:64:64-i64:64-i128:128-f80:128-n8:16:32:64-S128"
target triple = "x86_64-pc-linux-gnu"

%struct.rhash_info = type { i32, i32, i64, ptr, ptr }

; Function Attrs: nounwind uwtable
define dso_local i32 @rhash_get_hash_length(i32 noundef %0) #0 {
  %2 = alloca i32, align 4
  %3 = alloca ptr, align 8
  store i32 %0, ptr %2, align 4, !tbaa !4
  call void @llvm.lifetime.start.p0(i64 8, ptr %3) #8
  %4 = load i32, ptr %2, align 4, !tbaa !4
  %5 = call ptr @rhash_info_by_id(i32 noundef %4)
  store ptr %5, ptr %3, align 8, !tbaa !50
  %6 = load ptr, ptr %3, align 8, !tbaa !50
  %7 = icmp ne ptr %6, null
  br i1 %7, label %8, label %28

8:                                                ; preds = %1
  %9 = load ptr, ptr %3, align 8, !tbaa !50
  %10 = getelementptr inbounds nuw %struct.rhash_info, ptr %9, i32 0, i32 1
  %11 = load i32, ptr %10, align 4, !tbaa !51
  %12 = and i32 %11, 1
  %13 = icmp ne i32 %12, 0
  br i1 %13, label %14, label %21

14:                                               ; preds = %8
  %15 = load ptr, ptr %3, align 8, !tbaa !50
  %16 = getelementptr inbounds nuw %struct.rhash_info, ptr %15, i32 0, i32 2
  %17 = load i64, ptr %16, align 8, !tbaa !48
  %18 = mul i64 %17, 8
  %19 = add i64 %18, 4
  %20 = udiv i64 %19, 5
  br label %26

21:                                               ; preds = %8
  %22 = load ptr, ptr %3, align 8, !tbaa !50
  %23 = getelementptr inbounds nuw %struct.rhash_info, ptr %22, i32 0, i32 2
  %24 = load i64, ptr %23, align 8, !tbaa !48
  %25 = mul i64 %24, 2
  br label %26

26:                                               ; preds = %21, %14
  %27 = phi i64 [ %20, %14 ], [ %25, %21 ]
  br label %29

28:                                               ; preds = %1
  br label %29

29:                                               ; preds = %28, %26
  %30 = phi i64 [ %27, %26 ], [ 0, %28 ]
  %31 = trunc i64 %30 to i32
  call void @llvm.lifetime.end.p0(i64 8, ptr %3) #8
  ret i32 %31
}