; Function Attrs: nounwind uwtable
define dso_local i32 @rhash_get_hash_length(i32 noundef %0) local_unnamed_addr #0 {
  %2 = tail call ptr @rhash_info_by_id(i32 noundef %0) #15
  %.not = icmp eq ptr %2, null
  br i1 %.not, label %15, label %3

3:                                                ; preds = %1
  %4 = getelementptr inbounds nuw i8, ptr %2, i64 4
  %5 = load i32, ptr %4, align 4, !tbaa !40
  %6 = and i32 %5, 1
  %.not4 = icmp eq i32 %6, 0
  %7 = getelementptr inbounds nuw i8, ptr %2, i64 8
  %8 = load i64, ptr %7, align 8, !tbaa !37
  br i1 %.not4, label %13, label %9

9:                                                ; preds = %3
  %10 = shl i64 %8, 3
  %11 = or disjoint i64 %10, 4
  %12 = udiv i64 %11, 5
  br label %15

13:                                               ; preds = %3
  %14 = shl i64 %8, 1
  br label %15

15:                                               ; preds = %1, %9, %13
  %16 = phi i64 [ %12, %9 ], [ %14, %13 ], [ 0, %1 ]
  %17 = trunc i64 %16 to i32
  ret i32 %17
}